target datalayout = "e-m:e-p270:32:32-p271:32:32-p272:64:64-i64:64-i128:128-f80:128-n8:16:32:64-S128"
target triple = "x86_64-pc-linux-gnu"

%struct.Vec_Bit_t_ = type { i32, i32, ptr }

; Function Attrs: nounwind uwtable
define internal void @Vec_BitGrow(ptr noundef %0, i32 noundef %1) #0 {
  %3 = alloca ptr, align 8
  %4 = alloca i32, align 4
  store ptr %0, ptr %3, align 8
  store i32 %1, ptr %4, align 4
  %5 = load ptr, ptr %3, align 8
  %6 = getelementptr inbounds %struct.Vec_Bit_t_, ptr %5, i32 0, i32 0
  %7 = load i32, ptr %6, align 8
  %8 = load i32, ptr %4, align 4
  %9 = icmp sge i32 %7, %8
  br i1 %9, label %10, label %11

10:                                               ; preds = %2
  br label %44

11:                                               ; preds = %2
  %12 = load i32, ptr %4, align 4
  %13 = ashr i32 %12, 5
  %14 = load i32, ptr %4, align 4
  %15 = and i32 %14, 31
  %16 = icmp sgt i32 %15, 0
  %17 = zext i1 %16 to i32
  %18 = add nsw i32 %13, %17
  store i32 %18, ptr %4, align 4
  %19 = load ptr, ptr %3, align 8
  %20 = getelementptr inbounds %struct.Vec_Bit_t_, ptr %19, i32 0, i32 2
  %21 = load ptr, ptr %20, align 8
  %22 = icmp ne ptr %21, null
  br i1 %22, label %23, label %31

23:                                               ; preds = %11
  %24 = load ptr, ptr %3, align 8
  %25 = getelementptr inbounds %struct.Vec_Bit_t_, ptr %24, i32 0, i32 2
  %26 = load ptr, ptr %25, align 8
  %27 = load i32, ptr %4, align 4
  %28 = sext i32 %27 to i64
  %29 = mul i64 4, %28
  %30 = call ptr @realloc(ptr noundef %26, i64 noundef %29) #14
  br label %36

31:                                               ; preds = %11
  %32 = load i32, ptr %4, align 4
  %33 = sext i32 %32 to i64
  %34 = mul i64 4, %33
  %35 = call noalias ptr @malloc(i64 noundef %34) #11
  br label %36

36:                                               ; preds = %31, %23
  %37 = phi ptr [ %30, %23 ], [ %35, %31 ]
  %38 = load ptr, ptr %3, align 8
  %39 = getelementptr inbounds %struct.Vec_Bit_t_, ptr %38, i32 0, i32 2
  store ptr %37, ptr %39, align 8
  %40 = load i32, ptr %4, align 4
  %41 = mul nsw i32 %40, 32
  %42 = load ptr, ptr %3, align 8
  %43 = getelementptr inbounds %struct.Vec_Bit_t_, ptr %42, i32 0, i32 0
  store i32 %41, ptr %43, align 8
  br label %44

44:                                               ; preds = %36, %10
  ret void
}

; Function Attrs: nounwind uwtable
define internal void @Vec_BitPush(ptr noundef %0, i32 noundef %1) #0 {
  %3 = alloca ptr, align 8
  %4 = alloca i32, align 4
  store ptr %0, ptr %3, align 8
  store i32 %1, ptr %4, align 4
  %5 = load ptr, ptr %3, align 8
  %6 = getelementptr inbounds %struct.Vec_Bit_t_, ptr %5, i32 0, i32 1
  %7 = load i32, ptr %6, align 4
  %8 = load ptr, ptr %3, align 8
  %9 = getelementptr inbounds %struct.Vec_Bit_t_, ptr %8, i32 0, i32 0
  %10 = load i32, ptr %9, align 8
  %11 = icmp eq i32 %7, %10
  br i1 %11, label %12, label %26

12:                                               ; preds = %2
  %13 = load ptr, ptr %3, align 8
  %14 = getelementptr inbounds %struct.Vec_Bit_t_, ptr %13, i32 0, i32 0
  %15 = load i32, ptr %14, align 8
  %16 = icmp slt i32 %15, 16
  br i1 %16, label %17, label %19

17:                                               ; preds = %12
  %18 = load ptr, ptr %3, align 8
  call void @Vec_BitGrow(ptr noundef %18, i32 noundef 16)
  br label %25

19:                                               ; preds = %12
  %20 = load ptr, ptr %3, align 8
  %21 = load ptr, ptr %3, align 8
  %22 = getelementptr inbounds %struct.Vec_Bit_t_, ptr %21, i32 0, i32 0
  %23 = load i32, ptr %22, align 8
  %24 = mul nsw i32 2, %23
  call void @Vec_BitGrow(ptr noundef %20, i32 noundef %24)
  br label %25

25:                                               ; preds = %19, %17
  br label %26

26:                                               ; preds = %25, %2
  %27 = load i32, ptr %4, align 4
  %28 = icmp eq i32 %27, 1
  br i1 %28, label %29, label %46

29:                                               ; preds = %26
  %30 = load ptr, ptr %3, align 8
  %31 = getelementptr inbounds %struct.Vec_Bit_t_, ptr %30, i32 0, i32 1
  %32 = load i32, ptr %31, align 4
  %33 = and i32 %32, 31
  %34 = shl i32 1, %33
  %35 = load ptr, ptr %3, align 8
  %36 = getelementptr inbounds %struct.Vec_Bit_t_, ptr %35, i32 0, i32 2
  %37 = load ptr, ptr %36, align 8
  %38 = load ptr, ptr %3, align 8
  %39 = getelementptr inbounds %struct.Vec_Bit_t_, ptr %38, i32 0, i32 1
  %40 = load i32, ptr %39, align 4
  %41 = ashr i32 %40, 5
  %42 = sext i32 %41 to i64
  %43 = getelementptr inbounds i32, ptr %37, i64 %42
  %44 = load i32, ptr %43, align 4
  %45 = or i32 %44, %34
  store i32 %45, ptr %43, align 4
  br label %69

46:                                               ; preds = %26
  %47 = load i32, ptr %4, align 4
  %48 = icmp eq i32 %47, 0
  br i1 %48, label %49, label %67

49:                                               ; preds = %46
  %50 = load ptr, ptr %3, align 8
  %51 = getelementptr inbounds %struct.Vec_Bit_t_, ptr %50, i32 0, i32 1
  %52 = load i32, ptr %51, align 4
  %53 = and i32 %52, 31
  %54 = shl i32 1, %53
  %55 = xor i32 %54, -1
  %56 = load ptr, ptr %3, align 8
  %57 = getelementptr inbounds %struct.Vec_Bit_t_, ptr %56, i32 0, i32 2
  %58 = load ptr, ptr %57, align 8
  %59 = load ptr, ptr %3, align 8
  %60 = getelementptr inbounds %struct.Vec_Bit_t_, ptr %59, i32 0, i32 1
  %61 = load i32, ptr %60, align 4
  %62 = ashr i32 %61, 5
  %63 = sext i32 %62 to i64
  %64 = getelementptr inbounds i32, ptr %58, i64 %63
  %65 = load i32, ptr %64, align 4
  %66 = and i32 %65, %55
  store i32 %66, ptr %64, align 4
  br label %68

67:                                               ; preds = %46
  br label %68

68:                                               ; preds = %67, %49
  br label %69

69:                                               ; preds = %68, %29
  %70 = load ptr, ptr %3, align 8
  %71 = getelementptr inbounds %struct.Vec_Bit_t_, ptr %70, i32 0, i32 1
  %72 = load i32, ptr %71, align 4
  %73 = add nsw i32 %72, 1
  store i32 %73, ptr %71, align 4
  ret void
}