; Function Attrs: mustprogress nounwind willreturn uwtable
define internal fastcc void @Vec_BitPush(ptr noundef captures(none) %0, i32 noundef range(i32 0, 2) %1) unnamed_addr #3 {
  %3 = getelementptr inbounds nuw i8, ptr %0, i64 4
  %4 = load i32, ptr %3, align 4
  %5 = load i32, ptr %0, align 8
  %6 = icmp eq i32 %4, %5
  br i1 %6, label %7, label %Vec_BitGrow.exit17

7:                                                ; preds = %2
  %8 = icmp slt i32 %4, 16
  br i1 %8, label %9, label %17

9:                                                ; preds = %7
  %10 = getelementptr inbounds nuw i8, ptr %0, i64 8
  %11 = load ptr, ptr %10, align 8
  %.not11.i = icmp eq ptr %11, null
  br i1 %.not11.i, label %14, label %12

12:                                               ; preds = %9
  %13 = tail call dereferenceable_or_null(4) ptr @realloc(ptr noundef nonnull %11, i64 noundef 4) #19
  br label %Vec_BitGrow.exit

14:                                               ; preds = %9
  %15 = tail call noalias dereferenceable_or_null(4) ptr @malloc(i64 noundef 4) #18
  br label %Vec_BitGrow.exit

Vec_BitGrow.exit:                                 ; preds = %12, %14
  %16 = phi ptr [ %13, %12 ], [ %15, %14 ]
  store ptr %16, ptr %10, align 8
  br label %Vec_BitGrow.exit17.sink.split

17:                                               ; preds = %7
  %18 = lshr i32 %4, 4
  %19 = and i32 %4, 15
  %20 = icmp ne i32 %19, 0
  %21 = zext i1 %20 to i32
  %22 = add nuw nsw i32 %18, %21
  %23 = getelementptr inbounds nuw i8, ptr %0, i64 8
  %24 = load ptr, ptr %23, align 8
  %.not11.i16 = icmp eq ptr %24, null
  %25 = shl nuw nsw i32 %22, 2
  %26 = zext nneg i32 %25 to i64
  br i1 %.not11.i16, label %29, label %27

27:                                               ; preds = %17
  %28 = tail call ptr @realloc(ptr noundef nonnull %24, i64 noundef %26) #19
  br label %31

29:                                               ; preds = %17
  %30 = tail call noalias ptr @malloc(i64 noundef %26) #18
  br label %31

31:                                               ; preds = %29, %27
  %32 = phi ptr [ %28, %27 ], [ %30, %29 ]
  store ptr %32, ptr %23, align 8
  %33 = shl nuw nsw i32 %22, 5
  br label %Vec_BitGrow.exit17.sink.split

Vec_BitGrow.exit17.sink.split:                    ; preds = %Vec_BitGrow.exit, %31
  %.sink = phi i32 [ %33, %31 ], [ 32, %Vec_BitGrow.exit ]
  store i32 %.sink, ptr %0, align 8
  br label %Vec_BitGrow.exit17

Vec_BitGrow.exit17:                               ; preds = %Vec_BitGrow.exit17.sink.split, %2
  %.not = icmp eq i32 %1, 0
  %34 = load i32, ptr %3, align 4
  %35 = and i32 %34, 31
  %36 = shl nuw i32 1, %35
  br i1 %.not, label %45, label %37

37:                                               ; preds = %Vec_BitGrow.exit17
  %38 = getelementptr inbounds nuw i8, ptr %0, i64 8
  %39 = load ptr, ptr %38, align 8
  %40 = ashr i32 %34, 5
  %41 = sext i32 %40 to i64
  %42 = getelementptr inbounds i32, ptr %39, i64 %41
  %43 = load i32, ptr %42, align 4
  %44 = or i32 %43, %36
  store i32 %44, ptr %42, align 4
  br label %54

45:                                               ; preds = %Vec_BitGrow.exit17
  %46 = xor i32 %36, -1
  %47 = getelementptr inbounds nuw i8, ptr %0, i64 8
  %48 = load ptr, ptr %47, align 8
  %49 = ashr i32 %34, 5
  %50 = sext i32 %49 to i64
  %51 = getelementptr inbounds i32, ptr %48, i64 %50
  %52 = load i32, ptr %51, align 4
  %53 = and i32 %52, %46
  store i32 %53, ptr %51, align 4
  br label %54

54:                                               ; preds = %45, %37
  %55 = load i32, ptr %3, align 4
  %56 = add nsw i32 %55, 1
  store i32 %56, ptr %3, align 4
  ret void
}